target datalayout = "e-m:e-p270:32:32-p271:32:32-p272:64:64-i64:64-i128:128-f80:128-n8:16:32:64-S128"
target triple = "x86_64-pc-linux-gnu"

%struct.aiScene = type { i32, ptr, i32, ptr, i32, ptr, i32, ptr, i32, ptr, i32, ptr, i32, ptr, ptr, %struct.aiString, i32, ptr, ptr }
%struct.aiString = type { i32, [1024 x i8] }

@.str = private unnamed_addr constant [31 x i8] c"MakeVerboseFormatProcess begin\00", align 1
@.str.1 = private unnamed_addr constant [65 x i8] c"MakeVerboseFormatProcess finished. There was much work to do ...\00", align 1
@.str.2 = private unnamed_addr constant [51 x i8] c"MakeVerboseFormatProcess. There was nothing to do.\00", align 1

; Function Attrs: mustprogress uwtable
define hidden void @_ZN6Assimp24MakeVerboseFormatProcess7ExecuteEP7aiScene(ptr noundef nonnull align 8 dereferenceable(24) %0, ptr noundef %1) unnamed_addr #0 align 2 {
  %3 = alloca ptr, align 8
  %4 = alloca ptr, align 8
  %5 = alloca i8, align 1
  %6 = alloca i32, align 4
  store ptr %0, ptr %3, align 8
  store ptr %1, ptr %4, align 8
  %7 = load ptr, ptr %3, align 8
  %8 = call noundef ptr @_ZN6Assimp13DefaultLogger3getEv()
  call void @_ZN6Assimp6Logger5debugEPKc(ptr noundef nonnull align 8 dereferenceable(12) %8, ptr noundef @.str)
  call void @llvm.lifetime.start.p0(i64 1, ptr %5) #14
  store i8 0, ptr %5, align 1
  call void @llvm.lifetime.start.p0(i64 4, ptr %6) #14
  store i32 0, ptr %6, align 4
  br label %9

9:                                                ; preds = %27, %2
  %10 = load i32, ptr %6, align 4
  %11 = load ptr, ptr %4, align 8
  %12 = getelementptr inbounds nuw %struct.aiScene, ptr %11, i32 0, i32 2
  %13 = load i32, ptr %12, align 8
  %14 = icmp ult i32 %10, %13
  br i1 %14, label %16, label %15

15:                                               ; preds = %9
  call void @llvm.lifetime.end.p0(i64 4, ptr %6) #14
  br label %30

16:                                               ; preds = %9
  %17 = load ptr, ptr %4, align 8
  %18 = getelementptr inbounds nuw %struct.aiScene, ptr %17, i32 0, i32 3
  %19 = load ptr, ptr %18, align 8
  %20 = load i32, ptr %6, align 4
  %21 = zext i32 %20 to i64
  %22 = getelementptr inbounds nuw ptr, ptr %19, i64 %21
  %23 = load ptr, ptr %22, align 8
  %24 = call noundef zeroext i1 @_ZN6Assimp24MakeVerboseFormatProcess17MakeVerboseFormatEP6aiMesh(ptr noundef nonnull align 8 dereferenceable(24) %7, ptr noundef %23)
  br i1 %24, label %25, label %26

25:                                               ; preds = %16
  store i8 1, ptr %5, align 1
  br label %26

26:                                               ; preds = %25, %16
  br label %27

27:                                               ; preds = %26
  %28 = load i32, ptr %6, align 4
  %29 = add i32 %28, 1
  store i32 %29, ptr %6, align 4
  br label %9, !llvm.loop !3

30:                                               ; preds = %15
  %31 = load i8, ptr %5, align 1, !range !5, !noundef !6
  %32 = trunc i8 %31 to i1
  br i1 %32, label %33, label %35

33:                                               ; preds = %30
  %34 = call noundef ptr @_ZN6Assimp13DefaultLogger3getEv()
  call void @_ZN6Assimp6Logger4infoEPKc(ptr noundef nonnull align 8 dereferenceable(12) %34, ptr noundef @.str.1)
  br label %37

35:                                               ; preds = %30
  %36 = call noundef ptr @_ZN6Assimp13DefaultLogger3getEv()
  call void @_ZN6Assimp6Logger5debugEPKc(ptr noundef nonnull align 8 dereferenceable(12) %36, ptr noundef @.str.2)
  br label %37

37:                                               ; preds = %35, %33
  %38 = load ptr, ptr %4, align 8
  %39 = getelementptr inbounds nuw %struct.aiScene, ptr %38, i32 0, i32 0
  %40 = load i32, ptr %39, align 8
  %41 = and i32 %40, -9
  store i32 %41, ptr %39, align 8
  call void @llvm.lifetime.end.p0(i64 1, ptr %5) #14
  ret void
}