; Function Attrs: mustprogress uwtable
define hidden void @_ZN6Assimp24MakeVerboseFormatProcess7ExecuteEP7aiScene(ptr noundef nonnull readnone align 8 captures(none) dereferenceable(24) %0, ptr noundef captures(none) %1) unnamed_addr #0 align 2 {
  %3 = tail call noundef ptr @_ZN6Assimp13DefaultLogger3getEv()
  tail call void @_ZN6Assimp6Logger5debugEPKc(ptr noundef nonnull align 8 dereferenceable(12) %3, ptr noundef nonnull @.str)
  %4 = getelementptr inbounds nuw i8, ptr %1, i64 16
  %5 = load i32, ptr %4, align 8
  %.not = icmp eq i32 %5, 0
  br i1 %.not, label %.critedge, label %.lr.ph

.lr.ph:                                           ; preds = %2
  %6 = getelementptr inbounds nuw i8, ptr %1, i64 24
  br label %7

._crit_edge:                                      ; preds = %7
  br i1 %spec.select, label %15, label %.critedge

7:                                                ; preds = %.lr.ph, %7
  %indvars.iv = phi i64 [ 0, %.lr.ph ], [ %indvars.iv.next, %7 ]
  %.078 = phi i1 [ false, %.lr.ph ], [ %spec.select, %7 ]
  %8 = load ptr, ptr %6, align 8
  %9 = getelementptr inbounds nuw ptr, ptr %8, i64 %indvars.iv
  %10 = load ptr, ptr %9, align 8
  %11 = tail call noundef zeroext i1 @_ZN6Assimp24MakeVerboseFormatProcess17MakeVerboseFormatEP6aiMesh(ptr nonnull align 8 poison, ptr noundef %10)
  %spec.select = select i1 %11, i1 true, i1 %.078
  %indvars.iv.next = add nuw nsw i64 %indvars.iv, 1
  %12 = load i32, ptr %4, align 8
  %13 = zext i32 %12 to i64
  %14 = icmp samesign ult i64 %indvars.iv.next, %13
  br i1 %14, label %7, label %._crit_edge, !llvm.loop !3

15:                                               ; preds = %._crit_edge
  %16 = tail call noundef ptr @_ZN6Assimp13DefaultLogger3getEv()
  tail call void @_ZN6Assimp6Logger4infoEPKc(ptr noundef nonnull align 8 dereferenceable(12) %16, ptr noundef nonnull @.str.1)
  br label %18

.critedge:                                        ; preds = %2, %._crit_edge
  %17 = tail call noundef ptr @_ZN6Assimp13DefaultLogger3getEv()
  tail call void @_ZN6Assimp6Logger5debugEPKc(ptr noundef nonnull align 8 dereferenceable(12) %17, ptr noundef nonnull @.str.2)
  br label %18

18:                                               ; preds = %.critedge, %15
  %19 = load i32, ptr %1, align 8
  %20 = and i32 %19, -9
  store i32 %20, ptr %1, align 8
  ret void
}